; Function Attrs: mustprogress nounwind uwtable
define internal fastcc void @_ZN7obj_mapI4sort6vectorIN12_GLOBAL__N_127get_implied_equalities_impl7term_idELb1EjEE8key_dataD2Ev(ptr nocapture noundef nonnull readonly align 8 dereferenceable(16) %this) unnamed_addr #4 align 2 personality ptr @__gxx_personality_v0 {
entry:
  %m_value = getelementptr inbounds i8, ptr %this, i64 8
  %0 = load ptr, ptr %m_value, align 8
  %tobool.not.i.i = icmp eq ptr %0, null
  br i1 %tobool.not.i.i, label %_ZN6vectorIN12_GLOBAL__N_127get_implied_equalities_impl7term_idELb1EjED2Ev.exit, label %_ZNK6vectorIN12_GLOBAL__N_127get_implied_equalities_impl7term_idELb1EjE4sizeEv.exit.i.i.i

_ZNK6vectorIN12_GLOBAL__N_127get_implied_equalities_impl7term_idELb1EjE4sizeEv.exit.i.i.i: ; preds = %entry
  %arrayidx.i.i.i.i = getelementptr inbounds i8, ptr %0, i64 -4
  %1 = load i32, ptr %arrayidx.i.i.i.i, align 4
  %cmp.not6.i.i.i.i.i.i = icmp eq i32 %1, 0
  br i1 %cmp.not6.i.i.i.i.i.i, label %_ZN6vectorIN12_GLOBAL__N_127get_implied_equalities_impl7term_idELb1EjE16destroy_elementsEv.exit.i.i, label %for.body.i.i.i.i.i.i

for.body.i.i.i.i.i.i:                             ; preds = %_ZNK6vectorIN12_GLOBAL__N_127get_implied_equalities_impl7term_idELb1EjE4sizeEv.exit.i.i.i, %_ZSt8_DestroyIN12_GLOBAL__N_127get_implied_equalities_impl7term_idEEvPT_.exit.i.i.i.i.i.i
  %__count.addr.08.i.i.i.i.i.i = phi i32 [ %dec.i.i.i.i.i.i, %_ZSt8_DestroyIN12_GLOBAL__N_127get_implied_equalities_impl7term_idEEvPT_.exit.i.i.i.i.i.i ], [ %1, %_ZNK6vectorIN12_GLOBAL__N_127get_implied_equalities_impl7term_idELb1EjE4sizeEv.exit.i.i.i ]
  %__first.addr.07.i.i.i.i.i.i = phi ptr [ %incdec.ptr.i.i.i.i.i.i, %_ZSt8_DestroyIN12_GLOBAL__N_127get_implied_equalities_impl7term_idEEvPT_.exit.i.i.i.i.i.i ], [ %0, %_ZNK6vectorIN12_GLOBAL__N_127get_implied_equalities_impl7term_idELb1EjE4sizeEv.exit.i.i.i ]
  %__first.addr.0.val.i.i.i.i.i.i = load ptr, ptr %__first.addr.07.i.i.i.i.i.i, align 8
  %2 = getelementptr i8, ptr %__first.addr.07.i.i.i.i.i.i, i64 8
  %__first.addr.0.val4.i.i.i.i.i.i = load ptr, ptr %2, align 8
  %tobool.not.i.i.i.i.i.i.i.i.i.i = icmp eq ptr %__first.addr.0.val.i.i.i.i.i.i, null
  br i1 %tobool.not.i.i.i.i.i.i.i.i.i.i, label %_ZSt8_DestroyIN12_GLOBAL__N_127get_implied_equalities_impl7term_idEEvPT_.exit.i.i.i.i.i.i, label %if.then.i.i.i.i.i.i.i.i.i.i.i

if.then.i.i.i.i.i.i.i.i.i.i.i:                    ; preds = %for.body.i.i.i.i.i.i
  %m_ref_count.i.i.i.i.i.i.i.i.i.i.i.i = getelementptr inbounds i8, ptr %__first.addr.0.val.i.i.i.i.i.i, i64 8
  %3 = load i32, ptr %m_ref_count.i.i.i.i.i.i.i.i.i.i.i.i, align 4
  %dec.i.i.i.i.i.i.i.i.i.i.i.i = add i32 %3, -1
  store i32 %dec.i.i.i.i.i.i.i.i.i.i.i.i, ptr %m_ref_count.i.i.i.i.i.i.i.i.i.i.i.i, align 4
  %cmp.i.i.i.i.i.i.i.i.i.i.i = icmp eq i32 %dec.i.i.i.i.i.i.i.i.i.i.i.i, 0
  br i1 %cmp.i.i.i.i.i.i.i.i.i.i.i, label %if.then2.i.i.i.i.i.i.i.i.i.i.i, label %_ZSt8_DestroyIN12_GLOBAL__N_127get_implied_equalities_impl7term_idEEvPT_.exit.i.i.i.i.i.i

if.then2.i.i.i.i.i.i.i.i.i.i.i:                   ; preds = %if.then.i.i.i.i.i.i.i.i.i.i.i
  invoke void @_ZN11ast_manager11delete_nodeEP3ast(ptr noundef nonnull align 8 dereferenceable(976) %__first.addr.0.val4.i.i.i.i.i.i, ptr noundef nonnull %__first.addr.0.val.i.i.i.i.i.i)
          to label %_ZSt8_DestroyIN12_GLOBAL__N_127get_implied_equalities_impl7term_idEEvPT_.exit.i.i.i.i.i.i unwind label %terminate.lpad.i.i.i.i.i.i.i.i.i

terminate.lpad.i.i.i.i.i.i.i.i.i:                 ; preds = %if.then2.i.i.i.i.i.i.i.i.i.i.i
  %4 = landingpad { ptr, i32 }
          catch ptr null
  %5 = extractvalue { ptr, i32 } %4, 0
  tail call void @__clang_call_terminate(ptr %5) #16
  unreachable

_ZSt8_DestroyIN12_GLOBAL__N_127get_implied_equalities_impl7term_idEEvPT_.exit.i.i.i.i.i.i: ; preds = %if.then2.i.i.i.i.i.i.i.i.i.i.i, %if.then.i.i.i.i.i.i.i.i.i.i.i, %for.body.i.i.i.i.i.i
  %incdec.ptr.i.i.i.i.i.i = getelementptr inbounds i8, ptr %__first.addr.07.i.i.i.i.i.i, i64 24
  %dec.i.i.i.i.i.i = add i32 %__count.addr.08.i.i.i.i.i.i, -1
  %cmp.not.i.i.i.i.i.i = icmp eq i32 %dec.i.i.i.i.i.i, 0
  br i1 %cmp.not.i.i.i.i.i.i, label %_ZN6vectorIN12_GLOBAL__N_127get_implied_equalities_impl7term_idELb1EjE16destroy_elementsEv.exit.loopexit.i.i, label %for.body.i.i.i.i.i.i, !llvm.loop !9

_ZN6vectorIN12_GLOBAL__N_127get_implied_equalities_impl7term_idELb1EjE16destroy_elementsEv.exit.loopexit.i.i: ; preds = %_ZSt8_DestroyIN12_GLOBAL__N_127get_implied_equalities_impl7term_idEEvPT_.exit.i.i.i.i.i.i
  %this.val1.pre.i.i = load ptr, ptr %m_value, align 8
  br label %_ZN6vectorIN12_GLOBAL__N_127get_implied_equalities_impl7term_idELb1EjE16destroy_elementsEv.exit.i.i

_ZN6vectorIN12_GLOBAL__N_127get_implied_equalities_impl7term_idELb1EjE16destroy_elementsEv.exit.i.i: ; preds = %_ZN6vectorIN12_GLOBAL__N_127get_implied_equalities_impl7term_idELb1EjE16destroy_elementsEv.exit.loopexit.i.i, %_ZNK6vectorIN12_GLOBAL__N_127get_implied_equalities_impl7term_idELb1EjE4sizeEv.exit.i.i.i
  %this.val1.i.i = phi ptr [ %this.val1.pre.i.i, %_ZN6vectorIN12_GLOBAL__N_127get_implied_equalities_impl7term_idELb1EjE16destroy_elementsEv.exit.loopexit.i.i ], [ %0, %_ZNK6vectorIN12_GLOBAL__N_127get_implied_equalities_impl7term_idELb1EjE4sizeEv.exit.i.i.i ]
  %add.ptr.i.i.i = getelementptr inbounds i8, ptr %this.val1.i.i, i64 -8
  invoke void @_ZN6memory10deallocateEPv(ptr noundef nonnull %add.ptr.i.i.i)
          to label %_ZN6vectorIN12_GLOBAL__N_127get_implied_equalities_impl7term_idELb1EjED2Ev.exit unwind label %terminate.lpad.i

terminate.lpad.i:                                 ; preds = %_ZN6vectorIN12_GLOBAL__N_127get_implied_equalities_impl7term_idELb1EjE16destroy_elementsEv.exit.i.i
  %6 = landingpad { ptr, i32 }
          catch ptr null
  %7 = extractvalue { ptr, i32 } %6, 0
  tail call void @__clang_call_terminate(ptr %7) #16
  unreachable

_ZN6vectorIN12_GLOBAL__N_127get_implied_equalities_impl7term_idELb1EjED2Ev.exit: ; preds = %entry, %_ZN6vectorIN12_GLOBAL__N_127get_implied_equalities_impl7term_idELb1EjE16destroy_elementsEv.exit.i.i
  ret void
}